target datalayout = "e-m:e-p270:32:32-p271:32:32-p272:64:64-i64:64-i128:128-f80:128-n8:16:32:64-S128"
target triple = "x86_64-pc-linux-gnu"

%struct.crypto_hash_sha512_state = type { [8 x i64], [2 x i64], [128 x i8] }

@crypto_hash_sha512_init.sha512_initial_state = internal constant [8 x i64] [i64 7640891576956012808, i64 -4942790177534073029, i64 4354685564936845355, i64 -6534734903238641935, i64 5840696475078001361, i64 -7276294671716946913, i64 2270897969802886507, i64 6620516959819538809], align 16

; Function Attrs: alwaysinline nounwind
define internal ptr @memcpy.inline(ptr noalias nonnull %0, ptr noalias nonnull %1, i64 %2) #1 {
  %4 = alloca ptr, align 8
  %5 = alloca ptr, align 8
  %6 = alloca i64, align 8
  store ptr %0, ptr %4, align 8
  store ptr %1, ptr %5, align 8
  store i64 %2, ptr %6, align 8
  %7 = load ptr, ptr %4, align 8
  %8 = load ptr, ptr %5, align 8
  %9 = load i64, ptr %6, align 8
  %10 = load ptr, ptr %4, align 8
  %11 = call i64 @llvm.objectsize.i64.p0(ptr %10, i1 false, i1 true, i1 true)
  %12 = call ptr @__memcpy_chk(ptr noundef %7, ptr noundef %8, i64 noundef %9, i64 noundef %11) #7
  ret ptr %12
}

; Function Attrs: nounwind ssp uwtable
define dso_local i32 @crypto_hash_sha512_init(ptr noundef nonnull %0) #0 {
  %2 = alloca ptr, align 8
  store ptr %0, ptr %2, align 8
  %3 = load ptr, ptr %2, align 8
  %4 = getelementptr inbounds nuw %struct.crypto_hash_sha512_state, ptr %3, i32 0, i32 1
  %5 = getelementptr [2 x i64], ptr %4, i64 0, i64 1
  store i64 0, ptr %5, align 8
  %6 = load ptr, ptr %2, align 8
  %7 = getelementptr inbounds nuw %struct.crypto_hash_sha512_state, ptr %6, i32 0, i32 1
  %8 = getelementptr [2 x i64], ptr %7, i64 0, i64 0
  store i64 0, ptr %8, align 8
  %9 = load ptr, ptr %2, align 8
  %10 = getelementptr inbounds nuw %struct.crypto_hash_sha512_state, ptr %9, i32 0, i32 0
  %11 = getelementptr inbounds [8 x i64], ptr %10, i64 0, i64 0
  %12 = call ptr @memcpy.inline(ptr noundef %11, ptr noundef @crypto_hash_sha512_init.sha512_initial_state, i64 noundef 64) #7
  ret i32 0
}

; Function Attrs: nounwind ssp uwtable
define dso_local i32 @crypto_hash_sha512(ptr noundef nonnull %0, ptr noundef %1, i64 noundef %2) #0 {
  %4 = alloca ptr, align 8
  %5 = alloca ptr, align 8
  %6 = alloca i64, align 8
  %7 = alloca %struct.crypto_hash_sha512_state, align 8
  store ptr %0, ptr %4, align 8
  store ptr %1, ptr %5, align 8
  store i64 %2, ptr %6, align 8
  call void @llvm.lifetime.start.p0(i64 208, ptr %7) #7
  %8 = call i32 @crypto_hash_sha512_init(ptr noundef %7)
  %9 = load ptr, ptr %5, align 8
  %10 = load i64, ptr %6, align 8
  %11 = call i32 @crypto_hash_sha512_update(ptr noundef %7, ptr noundef %9, i64 noundef %10)
  %12 = load ptr, ptr %4, align 8
  %13 = call i32 @crypto_hash_sha512_final(ptr noundef %7, ptr noundef %12)
  call void @llvm.lifetime.end.p0(i64 208, ptr %7) #7
  ret i32 0
}