; Function Attrs: nounwind ssp uwtable
define dso_local noundef i32 @crypto_hash_sha512(ptr noundef nonnull writeonly captures(none) %0, ptr noundef readonly captures(none) %1, i64 noundef %2) local_unnamed_addr #1 {
  %4 = alloca %struct.crypto_hash_sha512_state, align 8
  call void @llvm.lifetime.start.p0(i64 208, ptr nonnull %4) #7
  %5 = getelementptr inbounds nuw i8, ptr %4, i64 64
  call void @llvm.memset.p0.i64(ptr noundef nonnull align 8 dereferenceable(16) %5, i8 0, i64 16, i1 false)
  call void @llvm.memcpy.p0.p0.i64(ptr noundef nonnull align 8 dereferenceable(64) %4, ptr noundef nonnull align 16 dereferenceable(64) @crypto_hash_sha512_init.sha512_initial_state, i64 noundef 64, i1 noundef false) #7
  %6 = call i32 @crypto_hash_sha512_update(ptr noundef %4, ptr noundef %1, i64 noundef %2)
  %7 = call i32 @crypto_hash_sha512_final(ptr noundef %4, ptr noundef %0)
  call void @llvm.lifetime.end.p0(i64 208, ptr nonnull %4) #7
  ret i32 0
}